target datalayout = "e-m:e-p270:32:32-p271:32:32-p272:64:64-i64:64-i128:128-f80:128-n8:16:32:64-S128"
target triple = "x86_64-pc-linux-gnu"

%"class.ade::MemoryDescriptorView" = type { ptr, ptr, %"struct.ade::util::DynMdSpan", i32, %"class.std::shared_ptr" }
%"struct.ade::util::DynMdSpan" = type { %"struct.std::array", i64 }
%"struct.std::array" = type { [6 x %"struct.ade::util::Span"] }
%"struct.ade::util::Span" = type { i32, i32 }
%"class.std::shared_ptr" = type { %"class.std::__shared_ptr" }
%"class.std::__shared_ptr" = type { ptr, %"class.std::__shared_count" }
%"class.std::__shared_count" = type { ptr }

; Function Attrs: mustprogress uwtable
define hidden noundef ptr @_ZN3ade20MemoryDescriptorView13getDescriptorEv(ptr noundef nonnull align 8 dereferenceable(96) %0) #1 align 2 {
  %2 = alloca ptr, align 8
  %3 = alloca ptr, align 8
  store ptr %0, ptr %3, align 8, !tbaa !3
  %4 = load ptr, ptr %3, align 8
  %5 = getelementptr inbounds nuw %"class.ade::MemoryDescriptorView", ptr %4, i32 0, i32 1
  %6 = load ptr, ptr %5, align 8, !tbaa !20
  %7 = icmp ne ptr null, %6
  br i1 %7, label %8, label %12

8:                                                ; preds = %1
  %9 = getelementptr inbounds nuw %"class.ade::MemoryDescriptorView", ptr %4, i32 0, i32 1
  %10 = load ptr, ptr %9, align 8, !tbaa !20
  %11 = call noundef ptr @_ZN3ade20MemoryDescriptorView13getDescriptorEv(ptr noundef nonnull align 8 dereferenceable(96) %10)
  store ptr %11, ptr %2, align 8
  br label %15

12:                                               ; preds = %1
  %13 = getelementptr inbounds nuw %"class.ade::MemoryDescriptorView", ptr %4, i32 0, i32 0
  %14 = load ptr, ptr %13, align 8, !tbaa !8
  store ptr %14, ptr %2, align 8
  br label %15

15:                                               ; preds = %12, %8
  %16 = load ptr, ptr %2, align 8
  ret ptr %16
}