; Function Attrs: mustprogress nofree norecurse nosync nounwind willreturn memory(read, inaccessiblemem: none) uwtable
define hidden noundef ptr @_ZN3ade20MemoryDescriptorView13getDescriptorEv(ptr noundef nonnull readonly align 8 captures(none) dereferenceable(96) %0) local_unnamed_addr #12 align 2 {
  br label %tailrecurse

tailrecurse:                                      ; preds = %tailrecurse, %1
  %.tr = phi ptr [ %0, %1 ], [ %3, %tailrecurse ]
  %2 = getelementptr inbounds nuw i8, ptr %.tr, i64 8
  %3 = load ptr, ptr %2, align 8, !tbaa !20
  %.not = icmp eq ptr %3, null
  br i1 %.not, label %4, label %tailrecurse

4:                                                ; preds = %tailrecurse
  %5 = load ptr, ptr %.tr, align 8, !tbaa !19
  ret ptr %5
}